; Function Attrs: mustprogress nounwind uwtable
define internal fastcc void @_ZN12_GLOBAL__N_122EmptyStatementsRemover16TraverseStmtExprEPN5clang8StmtExprE(ptr noundef nonnull align 8 dereferenceable(8) %0, ptr noundef readonly captures(none) %1) unnamed_addr #0 align 2 {
  %3 = alloca %"class.(anonymous namespace)::EmptyChecker", align 8
  %4 = getelementptr inbounds nuw i8, ptr %1, i64 16
  %5 = load ptr, ptr %4, align 8
  %6 = getelementptr inbounds nuw i8, ptr %5, i64 4
  %7 = load i32, ptr %6, align 4
  %8 = zext i32 %7 to i64
  %.idx = shl nuw nsw i64 %8, 3
  %9 = getelementptr inbounds nuw i8, ptr %5, i64 %.idx
  %.ptr15 = getelementptr inbounds nuw i8, ptr %9, i64 16
  %.not13 = icmp eq i32 %7, 0
  br i1 %.not13, label %._crit_edge, label %.lr.ph

.lr.ph:                                           ; preds = %2
  %.ptr = getelementptr inbounds nuw i8, ptr %5, i64 16
  %10 = getelementptr inbounds nuw i8, ptr %9, i64 8
  %11 = getelementptr inbounds nuw i8, ptr %3, i64 8
  br label %12

12:                                               ; preds = %.lr.ph, %27
  %.014 = phi ptr [ %.ptr, %.lr.ph ], [ %30, %27 ]
  %.not12 = icmp eq ptr %.014, %10
  %.pre16 = load ptr, ptr %.014, align 8
  br i1 %.not12, label %27, label %13

13:                                               ; preds = %12
  call void @llvm.lifetime.start.p0(i64 16, ptr nonnull %3)
  %.not.i = icmp eq ptr %.pre16, null
  br i1 %.not.i, label %_ZN12_GLOBAL__N_122EmptyStatementsRemover5checkEPN5clang4StmtE.exit, label %14

14:                                               ; preds = %13
  %15 = load ptr, ptr %0, align 8
  %16 = load ptr, ptr %15, align 8
  %17 = getelementptr inbounds nuw i8, ptr %15, i64 40
  %18 = load ptr, ptr %17, align 8
  store ptr %16, ptr %3, align 8
  store ptr %18, ptr %11, align 8
  %19 = call fastcc noundef zeroext i1 @_ZN5clang15StmtVisitorBaseISt11add_pointerN12_GLOBAL__N_112EmptyCheckerEbJEE5VisitEPNS_4StmtE(ptr noundef nonnull align 1 dereferenceable(1) %3, ptr noundef nonnull %.pre16)
  br i1 %19, label %_ZN5clang5arcmt11TransactionD2Ev.exit.i, label %_ZN12_GLOBAL__N_122EmptyStatementsRemover5checkEPN5clang4StmtE.exit

_ZN5clang5arcmt11TransactionD2Ev.exit.i:          ; preds = %14
  %20 = load ptr, ptr %0, align 8
  %21 = getelementptr inbounds nuw i8, ptr %20, i64 24
  %22 = load ptr, ptr %21, align 8
  tail call void @_ZN5clang5arcmt16TransformActions16startTransactionEv(ptr noundef nonnull align 8 dereferenceable(24) %22) #14
  %23 = load ptr, ptr %0, align 8
  %24 = getelementptr inbounds nuw i8, ptr %23, i64 24
  %25 = load ptr, ptr %24, align 8
  tail call void @_ZN5clang5arcmt16TransformActions10removeStmtEPNS_4StmtE(ptr noundef nonnull align 8 dereferenceable(24) %25, ptr noundef nonnull %.pre16) #14
  %26 = tail call noundef zeroext i1 @_ZN5clang5arcmt16TransformActions17commitTransactionEv(ptr noundef nonnull align 8 dereferenceable(24) %22) #14
  br label %_ZN12_GLOBAL__N_122EmptyStatementsRemover5checkEPN5clang4StmtE.exit

_ZN12_GLOBAL__N_122EmptyStatementsRemover5checkEPN5clang4StmtE.exit: ; preds = %13, %14, %_ZN5clang5arcmt11TransactionD2Ev.exit.i
  call void @llvm.lifetime.end.p0(i64 16, ptr nonnull %3)
  %.pre = load ptr, ptr %.014, align 8
  br label %27

27:                                               ; preds = %_ZN12_GLOBAL__N_122EmptyStatementsRemover5checkEPN5clang4StmtE.exit, %12
  %28 = phi ptr [ %.pre, %_ZN12_GLOBAL__N_122EmptyStatementsRemover5checkEPN5clang4StmtE.exit ], [ %.pre16, %12 ]
  %29 = tail call fastcc noundef zeroext i1 @_ZN5clang19RecursiveASTVisitorIN12_GLOBAL__N_122EmptyStatementsRemoverEE12TraverseStmtEPNS_4StmtEPN4llvm15SmallVectorImplINS6_14PointerIntPairIS5_Lj1EbNS6_21PointerLikeTypeTraitsIS5_EENS6_18PointerIntPairInfoIS5_Lj1ESA_EEEEEE(ptr noundef nonnull align 1 dereferenceable(1) %0, ptr noundef %28, ptr noundef null)
  %30 = getelementptr inbounds nuw i8, ptr %.014, i64 8
  %.not = icmp eq ptr %30, %.ptr15
  br i1 %.not, label %._crit_edge, label %12, !llvm.loop !41

._crit_edge:                                      ; preds = %27, %2
  ret void
}